; Function Attrs: nounwind uwtable
define internal ptr @wrap_descr_delete(ptr noundef %0, ptr noundef readonly captures(none) %1, ptr noundef readonly captures(none) %2) #1 {
  %4 = getelementptr i8, ptr %1, i64 8
  %.val8.i = load ptr, ptr %4, align 8, !tbaa !116
  %.not.i = icmp eq ptr %.val8.i, @PyTuple_Type
  br i1 %.not.i, label %7, label %5

5:                                                ; preds = %3
  %6 = load ptr, ptr @PyExc_SystemError, align 8, !tbaa !105
  tail call void @PyErr_SetString(ptr noundef %6, ptr noundef nonnull @.str.369) #24
  br label %check_num_args.exit.thread

7:                                                ; preds = %3
  %8 = getelementptr i8, ptr %1, i64 16
  %.val7.i = load i64, ptr %8, align 8, !tbaa !132
  %9 = icmp eq i64 %.val7.i, 1
  br i1 %9, label %check_num_args.exit, label %10

10:                                               ; preds = %7
  %11 = load ptr, ptr @PyExc_TypeError, align 8, !tbaa !105
  %12 = tail call ptr (ptr, ptr, ...) @PyErr_Format(ptr noundef %11, ptr noundef nonnull @.str.370, i32 noundef 1, ptr noundef nonnull @.str.119, i64 noundef %.val7.i) #24
  br label %check_num_args.exit.thread

check_num_args.exit:                              ; preds = %7
  %13 = getelementptr inbounds nuw i8, ptr %1, i64 24
  %14 = load ptr, ptr %13, align 8, !tbaa !105
  %15 = tail call i32 %2(ptr noundef %0, ptr noundef %14, ptr noundef null) #24
  %16 = icmp slt i32 %15, 0
  %._Py_NoneStruct = select i1 %16, ptr null, ptr @_Py_NoneStruct
  br label %check_num_args.exit.thread

check_num_args.exit.thread:                       ; preds = %5, %10, %check_num_args.exit
  %.0 = phi ptr [ %._Py_NoneStruct, %check_num_args.exit ], [ null, %10 ], [ null, %5 ]
  ret ptr %.0
}